target datalayout = "e-m:e-p270:32:32-p271:32:32-p272:64:64-i64:64-i128:128-f80:128-n8:16:32:64-S128"
target triple = "x86_64-pc-linux-gnu"

%struct.BrotliEncoderStateStruct = type { %struct.BrotliEncoderParams, %struct.MemoryManager, i64, %struct.RingBuffer, i64, ptr, i64, i64, i64, i64, i64, [16 x i32], [4 x i32], i16, i8, i8, i8, i8, i64, ptr, %struct.Hasher, [1024 x i32], ptr, i64, ptr, ptr, ptr, ptr, i64, ptr, i64, i64, %union.anon.0, i32, i32, i32, i32 }
%struct.BrotliEncoderParams = type { i32, i32, i32, i32, i64, i64, i32, i32, %struct.BrotliHasherParams, %struct.BrotliDistanceParams, %struct.SharedEncoderDictionary }
%struct.BrotliHasherParams = type { i32, i32, i32, i32 }
%struct.BrotliDistanceParams = type { i32, i32, i32, i32, i64 }
%struct.SharedEncoderDictionary = type { i32, %struct.CompoundDictionary, %struct.ContextualEncoderDictionary, i32 }
%struct.CompoundDictionary = type { i64, i64, [16 x ptr], [16 x ptr], [16 x i64], i64, [16 x ptr] }
%struct.ContextualEncoderDictionary = type { i32, i8, [64 x i8], [64 x ptr], i64, %struct.BrotliEncoderDictionary, ptr }
%struct.BrotliEncoderDictionary = type { ptr, i32, i32, i64, ptr, ptr, ptr, ptr, %struct.BrotliTrie, i32, ptr, ptr, ptr, i64, ptr, i64, ptr, ptr }
%struct.BrotliTrie = type { ptr, i64, i64, %struct.BrotliTrieNode }
%struct.BrotliTrieNode = type { i8, i8, i8, i32, i32 }
%struct.MemoryManager = type { ptr, ptr, ptr }
%struct.RingBuffer = type { i32, i32, i32, i32, i32, i32, ptr, ptr }
%struct.Hasher = type { %struct.HasherCommon, %union.anon }
%struct.HasherCommon = type { [4 x ptr], i32, i64, i64, %struct.BrotliHasherParams, i32 }
%union.anon = type { %struct.H42 }
%struct.H42 = type { [512 x i16], i64, [2 x ptr], ptr }
%union.anon.0 = type { [2 x i64] }

; Function Attrs: nounwind uwtable
define internal void @CheckFlushComplete(ptr noundef %0) #0 {
  %2 = alloca ptr, align 8
  store ptr %0, ptr %2, align 8, !tbaa !3
  %3 = load ptr, ptr %2, align 8, !tbaa !3
  %4 = getelementptr inbounds nuw %struct.BrotliEncoderStateStruct, ptr %3, i32 0, i32 34
  %5 = load i32, ptr %4, align 4, !tbaa !69
  %6 = icmp eq i32 %5, 1
  br i1 %6, label %7, label %17

7:                                                ; preds = %1
  %8 = load ptr, ptr %2, align 8, !tbaa !3
  %9 = getelementptr inbounds nuw %struct.BrotliEncoderStateStruct, ptr %8, i32 0, i32 30
  %10 = load i64, ptr %9, align 8, !tbaa !67
  %11 = icmp eq i64 %10, 0
  br i1 %11, label %12, label %17

12:                                               ; preds = %7
  %13 = load ptr, ptr %2, align 8, !tbaa !3
  %14 = getelementptr inbounds nuw %struct.BrotliEncoderStateStruct, ptr %13, i32 0, i32 34
  store i32 0, ptr %14, align 4, !tbaa !69
  %15 = load ptr, ptr %2, align 8, !tbaa !3
  %16 = getelementptr inbounds nuw %struct.BrotliEncoderStateStruct, ptr %15, i32 0, i32 29
  store ptr null, ptr %16, align 8, !tbaa !66
  br label %17

17:                                               ; preds = %12, %7, %1
  ret void
}

; Function Attrs: alwaysinline nounwind uwtable
define internal i64 @brotli_min_size_t(i64 noundef %0, i64 noundef %1) #3 {
  %3 = alloca i64, align 8
  %4 = alloca i64, align 8
  store i64 %0, ptr %3, align 8, !tbaa !75
  store i64 %1, ptr %4, align 8, !tbaa !75
  %5 = load i64, ptr %3, align 8, !tbaa !75
  %6 = load i64, ptr %4, align 8, !tbaa !75
  %7 = icmp ult i64 %5, %6
  br i1 %7, label %8, label %10

8:                                                ; preds = %2
  %9 = load i64, ptr %3, align 8, !tbaa !75
  br label %12

10:                                               ; preds = %2
  %11 = load i64, ptr %4, align 8, !tbaa !75
  br label %12

12:                                               ; preds = %10, %8
  %13 = phi i64 [ %9, %8 ], [ %11, %10 ]
  ret i64 %13
}

; Function Attrs: nounwind uwtable
define ptr @BrotliEncoderTakeOutput(ptr noundef %0, ptr noundef %1) #0 {
  %3 = alloca ptr, align 8
  %4 = alloca ptr, align 8
  %5 = alloca i64, align 8
  %6 = alloca ptr, align 8
  store ptr %0, ptr %3, align 8, !tbaa !3
  store ptr %1, ptr %4, align 8, !tbaa !77
  call void @llvm.lifetime.start.p0(i64 8, ptr %5) #10
  %7 = load ptr, ptr %3, align 8, !tbaa !3
  %8 = getelementptr inbounds nuw %struct.BrotliEncoderStateStruct, ptr %7, i32 0, i32 30
  %9 = load i64, ptr %8, align 8, !tbaa !67
  store i64 %9, ptr %5, align 8, !tbaa !75
  call void @llvm.lifetime.start.p0(i64 8, ptr %6) #10
  %10 = load ptr, ptr %3, align 8, !tbaa !3
  %11 = getelementptr inbounds nuw %struct.BrotliEncoderStateStruct, ptr %10, i32 0, i32 29
  %12 = load ptr, ptr %11, align 8, !tbaa !66
  store ptr %12, ptr %6, align 8, !tbaa !76
  %13 = load ptr, ptr %4, align 8, !tbaa !77
  %14 = load i64, ptr %13, align 8, !tbaa !75
  %15 = icmp ne i64 %14, 0
  br i1 %15, label %16, label %23

16:                                               ; preds = %2
  %17 = load ptr, ptr %4, align 8, !tbaa !77
  %18 = load i64, ptr %17, align 8, !tbaa !75
  %19 = load ptr, ptr %3, align 8, !tbaa !3
  %20 = getelementptr inbounds nuw %struct.BrotliEncoderStateStruct, ptr %19, i32 0, i32 30
  %21 = load i64, ptr %20, align 8, !tbaa !67
  %22 = call i64 @brotli_min_size_t(i64 noundef %18, i64 noundef %21)
  store i64 %22, ptr %5, align 8, !tbaa !75
  br label %23

23:                                               ; preds = %16, %2
  %24 = load i64, ptr %5, align 8, !tbaa !75
  %25 = icmp ne i64 %24, 0
  br i1 %25, label %26, label %45

26:                                               ; preds = %23
  %27 = load i64, ptr %5, align 8, !tbaa !75
  %28 = load ptr, ptr %3, align 8, !tbaa !3
  %29 = getelementptr inbounds nuw %struct.BrotliEncoderStateStruct, ptr %28, i32 0, i32 29
  %30 = load ptr, ptr %29, align 8, !tbaa !66
  %31 = getelementptr inbounds nuw i8, ptr %30, i64 %27
  store ptr %31, ptr %29, align 8, !tbaa !66
  %32 = load i64, ptr %5, align 8, !tbaa !75
  %33 = load ptr, ptr %3, align 8, !tbaa !3
  %34 = getelementptr inbounds nuw %struct.BrotliEncoderStateStruct, ptr %33, i32 0, i32 30
  %35 = load i64, ptr %34, align 8, !tbaa !67
  %36 = sub i64 %35, %32
  store i64 %36, ptr %34, align 8, !tbaa !67
  %37 = load i64, ptr %5, align 8, !tbaa !75
  %38 = load ptr, ptr %3, align 8, !tbaa !3
  %39 = getelementptr inbounds nuw %struct.BrotliEncoderStateStruct, ptr %38, i32 0, i32 31
  %40 = load i64, ptr %39, align 8, !tbaa !68
  %41 = add i64 %40, %37
  store i64 %41, ptr %39, align 8, !tbaa !68
  %42 = load ptr, ptr %3, align 8, !tbaa !3
  call void @CheckFlushComplete(ptr noundef %42)
  %43 = load i64, ptr %5, align 8, !tbaa !75
  %44 = load ptr, ptr %4, align 8, !tbaa !77
  store i64 %43, ptr %44, align 8, !tbaa !75
  br label %47

45:                                               ; preds = %23
  %46 = load ptr, ptr %4, align 8, !tbaa !77
  store i64 0, ptr %46, align 8, !tbaa !75
  store ptr null, ptr %6, align 8, !tbaa !76
  br label %47

47:                                               ; preds = %45, %26
  %48 = load ptr, ptr %6, align 8, !tbaa !76
  call void @llvm.lifetime.end.p0(i64 8, ptr %6) #10
  call void @llvm.lifetime.end.p0(i64 8, ptr %5) #10
  ret ptr %48
}