; Function Attrs: mustprogress nofree norecurse nosync nounwind willreturn memory(argmem: readwrite) uwtable
define ptr @BrotliEncoderTakeOutput(ptr noundef captures(none) %0, ptr noundef captures(none) %1) local_unnamed_addr #0 {
  %3 = getelementptr inbounds nuw i8, ptr %0, i64 6928
  %4 = load i64, ptr %3, align 8, !tbaa !72
  %5 = getelementptr inbounds nuw i8, ptr %0, i64 6920
  %6 = load ptr, ptr %5, align 8, !tbaa !84
  %7 = load i64, ptr %1, align 8, !tbaa !69
  %.not = icmp eq i64 %7, 0
  %8 = tail call i64 @llvm.umin.i64(i64 %7, i64 %4)
  %.016 = select i1 %.not, i64 %4, i64 %8
  %.not18 = icmp eq i64 %.016, 0
  br i1 %.not18, label %CheckFlushComplete.exit, label %9

9:                                                ; preds = %2
  %10 = getelementptr inbounds nuw i8, ptr %6, i64 %.016
  store ptr %10, ptr %5, align 8, !tbaa !84
  %11 = sub i64 %4, %.016
  store i64 %11, ptr %3, align 8, !tbaa !72
  %12 = getelementptr inbounds nuw i8, ptr %0, i64 6936
  %13 = load i64, ptr %12, align 8, !tbaa !85
  %14 = add i64 %13, %.016
  store i64 %14, ptr %12, align 8, !tbaa !85
  %15 = getelementptr inbounds nuw i8, ptr %0, i64 6964
  %16 = load i32, ptr %15, align 4, !tbaa !57
  %17 = icmp eq i32 %16, 1
  %18 = icmp eq i64 %4, %.016
  %or.cond = and i1 %18, %17
  br i1 %or.cond, label %19, label %CheckFlushComplete.exit

19:                                               ; preds = %9
  store i32 0, ptr %15, align 4, !tbaa !57
  store ptr null, ptr %5, align 8, !tbaa !84
  br label %CheckFlushComplete.exit

CheckFlushComplete.exit:                          ; preds = %19, %9, %2
  %.0 = phi ptr [ null, %2 ], [ %6, %9 ], [ %6, %19 ]
  store i64 %.016, ptr %1, align 8, !tbaa !69
  ret ptr %.0
}